target datalayout = "e-m:e-p270:32:32-p271:32:32-p272:64:64-i64:64-i128:128-f80:128-n8:16:32:64-S128"
target triple = "x86_64-pc-linux-gnu"

%struct.H5S_hyper_span_info_t = type { i32, ptr, ptr, [2 x %struct.H5S_hyper_op_info_t], ptr, ptr, [0 x i64] }
%struct.H5S_hyper_op_info_t = type { i64, %union.anon.1 }
%union.anon.1 = type { ptr }
%struct.H5S_hyper_span_t = type { i64, i64, ptr, ptr }

@H5S_init_g = external global i8, align 1
@H5_libterm_g = external global i8, align 1

; Function Attrs: nounwind willreturn memory(read) uwtable
define internal zeroext i1 @H5S__hyper_spans_shape_same_helper(ptr noundef %0, ptr noundef %1, ptr noundef %2, ptr noundef %3) #6 {
  %5 = alloca i1, align 1
  %6 = alloca ptr, align 8
  %7 = alloca ptr, align 8
  %8 = alloca ptr, align 8
  %9 = alloca ptr, align 8
  %10 = alloca i8, align 1
  %11 = alloca ptr, align 8
  %12 = alloca ptr, align 8
  %13 = alloca i32, align 4
  store ptr %0, ptr %6, align 8, !tbaa !107
  store ptr %1, ptr %7, align 8, !tbaa !107
  store ptr %2, ptr %8, align 8, !tbaa !33
  store ptr %3, ptr %9, align 8, !tbaa !201
  call void @llvm.lifetime.start.p0(i64 1, ptr %10) #7
  store i8 1, ptr %10, align 1, !tbaa !8
  %14 = load i8, ptr @H5S_init_g, align 1, !tbaa !8, !range !12, !noundef !13
  %15 = trunc i8 %14 to i1
  br i1 %15, label %20, label %16

16:                                               ; preds = %4
  %17 = load i8, ptr @H5_libterm_g, align 1, !tbaa !8, !range !12, !noundef !13
  %18 = trunc i8 %17 to i1
  %19 = xor i1 %18, true
  br label %20

20:                                               ; preds = %16, %4
  %21 = phi i1 [ true, %4 ], [ %19, %16 ]
  %22 = xor i1 %21, true
  %23 = xor i1 %22, true
  %24 = zext i1 %23 to i32
  %25 = sext i32 %24 to i64
  %26 = call i64 @llvm.expect.i64(i64 %25, i64 1)
  %27 = icmp ne i64 %26, 0
  br i1 %27, label %28, label %185

28:                                               ; preds = %20
  %29 = load ptr, ptr %6, align 8, !tbaa !107
  %30 = getelementptr inbounds nuw %struct.H5S_hyper_span_info_t, ptr %29, i32 0, i32 1
  %31 = load ptr, ptr %30, align 8, !tbaa !33
  %32 = getelementptr inbounds i64, ptr %31, i64 0
  %33 = load i64, ptr %32, align 8, !tbaa !15
  %34 = load ptr, ptr %8, align 8, !tbaa !33
  %35 = getelementptr inbounds i64, ptr %34, i64 0
  %36 = load i64, ptr %35, align 8, !tbaa !15
  %37 = add nsw i64 %33, %36
  %38 = load ptr, ptr %7, align 8, !tbaa !107
  %39 = getelementptr inbounds nuw %struct.H5S_hyper_span_info_t, ptr %38, i32 0, i32 1
  %40 = load ptr, ptr %39, align 8, !tbaa !33
  %41 = getelementptr inbounds i64, ptr %40, i64 0
  %42 = load i64, ptr %41, align 8, !tbaa !15
  %43 = icmp ne i64 %37, %42
  br i1 %43, label %44, label %48

44:                                               ; preds = %28
  br label %45

45:                                               ; preds = %44
  store i8 0, ptr %10, align 1, !tbaa !8
  br label %184

46:                                               ; No predecessors!
  br label %47

47:                                               ; preds = %46
  br label %183

48:                                               ; preds = %28
  %49 = load ptr, ptr %6, align 8, !tbaa !107
  %50 = getelementptr inbounds nuw %struct.H5S_hyper_span_info_t, ptr %49, i32 0, i32 2
  %51 = load ptr, ptr %50, align 8, !tbaa !33
  %52 = getelementptr inbounds i64, ptr %51, i64 0
  %53 = load i64, ptr %52, align 8, !tbaa !15
  %54 = load ptr, ptr %8, align 8, !tbaa !33
  %55 = getelementptr inbounds i64, ptr %54, i64 0
  %56 = load i64, ptr %55, align 8, !tbaa !15
  %57 = add nsw i64 %53, %56
  %58 = load ptr, ptr %7, align 8, !tbaa !107
  %59 = getelementptr inbounds nuw %struct.H5S_hyper_span_info_t, ptr %58, i32 0, i32 2
  %60 = load ptr, ptr %59, align 8, !tbaa !33
  %61 = getelementptr inbounds i64, ptr %60, i64 0
  %62 = load i64, ptr %61, align 8, !tbaa !15
  %63 = icmp ne i64 %57, %62
  br i1 %63, label %64, label %68

64:                                               ; preds = %48
  br label %65

65:                                               ; preds = %64
  store i8 0, ptr %10, align 1, !tbaa !8
  br label %184

66:                                               ; No predecessors!
  br label %67

67:                                               ; preds = %66
  br label %182

68:                                               ; preds = %48
  call void @llvm.lifetime.start.p0(i64 8, ptr %11) #7
  call void @llvm.lifetime.start.p0(i64 8, ptr %12) #7
  %69 = load ptr, ptr %6, align 8, !tbaa !107
  %70 = getelementptr inbounds nuw %struct.H5S_hyper_span_info_t, ptr %69, i32 0, i32 4
  %71 = load ptr, ptr %70, align 8, !tbaa !99
  store ptr %71, ptr %11, align 8, !tbaa !99
  %72 = load ptr, ptr %7, align 8, !tbaa !107
  %73 = getelementptr inbounds nuw %struct.H5S_hyper_span_info_t, ptr %72, i32 0, i32 4
  %74 = load ptr, ptr %73, align 8, !tbaa !99
  store ptr %74, ptr %12, align 8, !tbaa !99
  br label %75

75:                                               ; preds = %173, %68
  br label %76

76:                                               ; preds = %75
  %77 = load ptr, ptr %11, align 8, !tbaa !99
  %78 = icmp eq ptr %77, null
  br i1 %78, label %79, label %86

79:                                               ; preds = %76
  %80 = load ptr, ptr %12, align 8, !tbaa !99
  %81 = icmp eq ptr %80, null
  br i1 %81, label %82, label %86

82:                                               ; preds = %79
  br label %83

83:                                               ; preds = %82
  store i8 1, ptr %10, align 1, !tbaa !8
  store i32 4, ptr %13, align 4
  br label %180

84:                                               ; No predecessors!
  br label %85

85:                                               ; preds = %84
  br label %86

86:                                               ; preds = %85, %79, %76
  %87 = load ptr, ptr %11, align 8, !tbaa !99
  %88 = icmp eq ptr %87, null
  br i1 %88, label %92, label %89

89:                                               ; preds = %86
  %90 = load ptr, ptr %12, align 8, !tbaa !99
  %91 = icmp eq ptr %90, null
  br i1 %91, label %92, label %96

92:                                               ; preds = %89, %86
  br label %93

93:                                               ; preds = %92
  store i8 0, ptr %10, align 1, !tbaa !8
  store i32 4, ptr %13, align 4
  br label %180

94:                                               ; No predecessors!
  br label %95

95:                                               ; preds = %94
  br label %96

96:                                               ; preds = %95, %89
  %97 = load ptr, ptr %11, align 8, !tbaa !99
  %98 = getelementptr inbounds nuw %struct.H5S_hyper_span_t, ptr %97, i32 0, i32 0
  %99 = load i64, ptr %98, align 8, !tbaa !101
  %100 = load ptr, ptr %8, align 8, !tbaa !33
  %101 = getelementptr inbounds i64, ptr %100, i64 0
  %102 = load i64, ptr %101, align 8, !tbaa !15
  %103 = add nsw i64 %99, %102
  %104 = load ptr, ptr %12, align 8, !tbaa !99
  %105 = getelementptr inbounds nuw %struct.H5S_hyper_span_t, ptr %104, i32 0, i32 0
  %106 = load i64, ptr %105, align 8, !tbaa !101
  %107 = icmp ne i64 %103, %106
  br i1 %107, label %120, label %108

108:                                              ; preds = %96
  %109 = load ptr, ptr %11, align 8, !tbaa !99
  %110 = getelementptr inbounds nuw %struct.H5S_hyper_span_t, ptr %109, i32 0, i32 1
  %111 = load i64, ptr %110, align 8, !tbaa !109
  %112 = load ptr, ptr %8, align 8, !tbaa !33
  %113 = getelementptr inbounds i64, ptr %112, i64 0
  %114 = load i64, ptr %113, align 8, !tbaa !15
  %115 = add nsw i64 %111, %114
  %116 = load ptr, ptr %12, align 8, !tbaa !99
  %117 = getelementptr inbounds nuw %struct.H5S_hyper_span_t, ptr %116, i32 0, i32 1
  %118 = load i64, ptr %117, align 8, !tbaa !109
  %119 = icmp ne i64 %115, %118
  br i1 %119, label %120, label %124

120:                                              ; preds = %108, %96
  br label %121

121:                                              ; preds = %120
  store i8 0, ptr %10, align 1, !tbaa !8
  store i32 4, ptr %13, align 4
  br label %180

122:                                              ; No predecessors!
  br label %123

123:                                              ; preds = %122
  br label %124

124:                                              ; preds = %123, %108
  %125 = load ptr, ptr %11, align 8, !tbaa !99
  %126 = getelementptr inbounds nuw %struct.H5S_hyper_span_t, ptr %125, i32 0, i32 2
  %127 = load ptr, ptr %126, align 8, !tbaa !103
  %128 = icmp ne ptr %127, null
  br i1 %128, label %134, label %129

129:                                              ; preds = %124
  %130 = load ptr, ptr %12, align 8, !tbaa !99
  %131 = getelementptr inbounds nuw %struct.H5S_hyper_span_t, ptr %130, i32 0, i32 2
  %132 = load ptr, ptr %131, align 8, !tbaa !103
  %133 = icmp ne ptr %132, null
  br i1 %133, label %134, label %172

134:                                              ; preds = %129, %124
  %135 = load ptr, ptr %9, align 8, !tbaa !201
  %136 = getelementptr inbounds i8, ptr %135, i64 0
  %137 = load i8, ptr %136, align 1, !tbaa !8, !range !12, !noundef !13
  %138 = trunc i8 %137 to i1
  br i1 %138, label %139, label %153

139:                                              ; preds = %134
  %140 = load ptr, ptr %11, align 8, !tbaa !99
  %141 = getelementptr inbounds nuw %struct.H5S_hyper_span_t, ptr %140, i32 0, i32 2
  %142 = load ptr, ptr %141, align 8, !tbaa !103
  %143 = load ptr, ptr %12, align 8, !tbaa !99
  %144 = getelementptr inbounds nuw %struct.H5S_hyper_span_t, ptr %143, i32 0, i32 2
  %145 = load ptr, ptr %144, align 8, !tbaa !103
  %146 = call zeroext i1 @H5S__hyper_cmp_spans(ptr noundef %142, ptr noundef %145) #8
  br i1 %146, label %151, label %147

147:                                              ; preds = %139
  br label %148

148:                                              ; preds = %147
  store i8 0, ptr %10, align 1, !tbaa !8
  store i32 4, ptr %13, align 4
  br label %180

149:                                              ; No predecessors!
  br label %150

150:                                              ; preds = %149
  br label %152

151:                                              ; preds = %139
  br label %152

152:                                              ; preds = %151, %150
  br label %171

153:                                              ; preds = %134
  %154 = load ptr, ptr %11, align 8, !tbaa !99
  %155 = getelementptr inbounds nuw %struct.H5S_hyper_span_t, ptr %154, i32 0, i32 2
  %156 = load ptr, ptr %155, align 8, !tbaa !103
  %157 = load ptr, ptr %12, align 8, !tbaa !99
  %158 = getelementptr inbounds nuw %struct.H5S_hyper_span_t, ptr %157, i32 0, i32 2
  %159 = load ptr, ptr %158, align 8, !tbaa !103
  %160 = load ptr, ptr %8, align 8, !tbaa !33
  %161 = getelementptr inbounds i64, ptr %160, i64 1
  %162 = load ptr, ptr %9, align 8, !tbaa !201
  %163 = getelementptr inbounds i8, ptr %162, i64 1
  %164 = call zeroext i1 @H5S__hyper_spans_shape_same_helper(ptr noundef %156, ptr noundef %159, ptr noundef %161, ptr noundef %163) #8
  br i1 %164, label %169, label %165

165:                                              ; preds = %153
  br label %166

166:                                              ; preds = %165
  store i8 0, ptr %10, align 1, !tbaa !8
  store i32 4, ptr %13, align 4
  br label %180

167:                                              ; No predecessors!
  br label %168

168:                                              ; preds = %167
  br label %170

169:                                              ; preds = %153
  br label %170

170:                                              ; preds = %169, %168
  br label %171

171:                                              ; preds = %170, %152
  br label %173

172:                                              ; preds = %129
  br label %173

173:                                              ; preds = %172, %171
  %174 = load ptr, ptr %11, align 8, !tbaa !99
  %175 = getelementptr inbounds nuw %struct.H5S_hyper_span_t, ptr %174, i32 0, i32 3
  %176 = load ptr, ptr %175, align 8, !tbaa !108
  store ptr %176, ptr %11, align 8, !tbaa !99
  %177 = load ptr, ptr %12, align 8, !tbaa !99
  %178 = getelementptr inbounds nuw %struct.H5S_hyper_span_t, ptr %177, i32 0, i32 3
  %179 = load ptr, ptr %178, align 8, !tbaa !108
  store ptr %179, ptr %12, align 8, !tbaa !99
  br label %75

180:                                              ; preds = %166, %148, %121, %93, %83
  call void @llvm.lifetime.end.p0(i64 8, ptr %12) #7
  call void @llvm.lifetime.end.p0(i64 8, ptr %11) #7
  %181 = load i32, ptr %13, align 4
  switch i32 %181, label %188 [
    i32 4, label %184
  ]

182:                                              ; preds = %67
  br label %183

183:                                              ; preds = %182, %47
  br label %184

184:                                              ; preds = %183, %180, %65, %45
  br label %185

185:                                              ; preds = %184, %20
  %186 = load i8, ptr %10, align 1, !tbaa !8, !range !12, !noundef !13
  %187 = trunc i8 %186 to i1
  store i1 %187, ptr %5, align 1
  store i32 1, ptr %13, align 4
  br label %188

188:                                              ; preds = %185, %180
  call void @llvm.lifetime.end.p0(i64 1, ptr %10) #7
  %189 = load i1, ptr %5, align 1
  ret i1 %189
}