; Function Attrs: mustprogress nofree nosync nounwind willreturn memory(read, inaccessiblemem: none) uwtable
define internal fastcc zeroext i1 @H5S__hyper_spans_shape_same_helper(ptr noundef readonly captures(none) %0, ptr noundef readonly captures(none) %1, ptr noundef nonnull readonly captures(none) %2, ptr noundef nonnull readonly captures(none) %3) unnamed_addr #12 {
  %5 = load i8, ptr @H5S_init_g, align 1, !tbaa !3, !range !7, !noundef !8
  %6 = trunc nuw i8 %5 to i1
  %7 = load i8, ptr @H5_libterm_g, align 1, !range !7
  %8 = trunc nuw i8 %7 to i1
  %9 = xor i1 %8, true
  %10 = select i1 %6, i1 true, i1 %9
  br i1 %10, label %11, label %.loopexit, !prof !9

11:                                               ; preds = %4
  %12 = getelementptr inbounds nuw i8, ptr %0, i64 8
  %13 = load ptr, ptr %12, align 8, !tbaa !31
  %14 = load i64, ptr %13, align 8, !tbaa !11
  %15 = load i64, ptr %2, align 8, !tbaa !11
  %16 = add nsw i64 %15, %14
  %17 = getelementptr inbounds nuw i8, ptr %1, i64 8
  %18 = load ptr, ptr %17, align 8, !tbaa !31
  %19 = load i64, ptr %18, align 8, !tbaa !11
  %.not = icmp eq i64 %16, %19
  br i1 %.not, label %20, label %.loopexit

20:                                               ; preds = %11
  %21 = getelementptr inbounds nuw i8, ptr %0, i64 16
  %22 = load ptr, ptr %21, align 8, !tbaa !31
  %23 = load i64, ptr %22, align 8, !tbaa !11
  %24 = add nsw i64 %23, %15
  %25 = getelementptr inbounds nuw i8, ptr %1, i64 16
  %26 = load ptr, ptr %25, align 8, !tbaa !31
  %27 = load i64, ptr %26, align 8, !tbaa !11
  %.not38 = icmp eq i64 %24, %27
  br i1 %.not38, label %28, label %.loopexit

28:                                               ; preds = %20
  %29 = getelementptr inbounds nuw i8, ptr %0, i64 56
  %30 = getelementptr inbounds nuw i8, ptr %1, i64 56
  %.03453 = load ptr, ptr %30, align 8, !tbaa !88
  %.03554 = load ptr, ptr %29, align 8, !tbaa !88
  %31 = icmp eq ptr %.03554, null
  %32 = icmp eq ptr %.03453, null
  %or.cond4355 = select i1 %31, i1 true, i1 %32
  br i1 %or.cond4355, label %.loopexit.split.loop.exit, label %.lr.ph

.lr.ph:                                           ; preds = %28
  %33 = getelementptr inbounds nuw i8, ptr %2, i64 8
  %34 = getelementptr inbounds nuw i8, ptr %3, i64 1
  br label %35

35:                                               ; preds = %.lr.ph, %60
  %.03557 = phi ptr [ %.03554, %.lr.ph ], [ %.035, %60 ]
  %.03456 = phi ptr [ %.03453, %.lr.ph ], [ %.034, %60 ]
  %36 = load i64, ptr %.03557, align 8, !tbaa !90
  %37 = add nsw i64 %36, %15
  %38 = load i64, ptr %.03456, align 8, !tbaa !90
  %.not39 = icmp eq i64 %37, %38
  br i1 %.not39, label %39, label %.loopexit

39:                                               ; preds = %35
  %40 = getelementptr inbounds nuw i8, ptr %.03557, i64 8
  %41 = load i64, ptr %40, align 8, !tbaa !97
  %42 = add nsw i64 %41, %15
  %43 = getelementptr inbounds nuw i8, ptr %.03456, i64 8
  %44 = load i64, ptr %43, align 8, !tbaa !97
  %.not40 = icmp eq i64 %42, %44
  br i1 %.not40, label %45, label %.loopexit

45:                                               ; preds = %39
  %46 = getelementptr inbounds nuw i8, ptr %.03557, i64 16
  %47 = load ptr, ptr %46, align 8, !tbaa !92
  %.not41 = icmp eq ptr %47, null
  br i1 %.not41, label %48, label %51

48:                                               ; preds = %45
  %49 = getelementptr inbounds nuw i8, ptr %.03456, i64 16
  %50 = load ptr, ptr %49, align 8, !tbaa !92
  %.not42 = icmp eq ptr %50, null
  br i1 %.not42, label %60, label %51

51:                                               ; preds = %48, %45
  %52 = load i8, ptr %3, align 1, !tbaa !3, !range !7, !noundef !8
  %53 = trunc nuw i8 %52 to i1
  %54 = getelementptr inbounds nuw i8, ptr %.03456, i64 16
  %55 = load ptr, ptr %54, align 8, !tbaa !92
  br i1 %53, label %56, label %58

56:                                               ; preds = %51
  %57 = tail call fastcc zeroext i1 @H5S__hyper_cmp_spans(ptr noundef %47, ptr noundef %55) #15
  br i1 %57, label %60, label %.loopexit

58:                                               ; preds = %51
  %59 = tail call fastcc zeroext i1 @H5S__hyper_spans_shape_same_helper(ptr noundef %47, ptr noundef %55, ptr noundef %33, ptr noundef %34) #15
  br i1 %59, label %60, label %.loopexit

60:                                               ; preds = %48, %56, %58
  %61 = getelementptr inbounds nuw i8, ptr %.03557, i64 24
  %62 = getelementptr inbounds nuw i8, ptr %.03456, i64 24
  %.034 = load ptr, ptr %62, align 8, !tbaa !88
  %.035 = load ptr, ptr %61, align 8, !tbaa !88
  %63 = icmp eq ptr %.035, null
  %64 = icmp eq ptr %.034, null
  %or.cond43 = select i1 %63, i1 true, i1 %64
  br i1 %or.cond43, label %.loopexit.split.loop.exit, label %35

.loopexit.split.loop.exit:                        ; preds = %60, %28
  %.lcssa52 = phi i1 [ %32, %28 ], [ %64, %60 ]
  %.lcssa = phi i1 [ %31, %28 ], [ %63, %60 ]
  %or.cond.le = select i1 %.lcssa, i1 %.lcssa52, i1 false
  br label %.loopexit

.loopexit:                                        ; preds = %35, %39, %56, %58, %.loopexit.split.loop.exit, %4, %11, %20
  %.036 = phi i1 [ true, %4 ], [ false, %11 ], [ false, %20 ], [ %or.cond.le, %.loopexit.split.loop.exit ], [ false, %58 ], [ false, %56 ], [ false, %39 ], [ false, %35 ]
  ret i1 %.036
}